; Function Attrs: mustprogress nounwind uwtable
define void @_ZN7Iex_3_415EafnosupportExcC2EOS0_(ptr noundef nonnull align 8 dereferenceable(72) initializes((0, 8)) %0, ptr noundef nonnull readonly align 8 captures(none) dereferenceable(72) %1) unnamed_addr #5 align 2 personality ptr @__gxx_personality_v0 {
  invoke void @_ZN7Iex_3_47BaseExcC2ERKS0_(ptr noundef nonnull align 8 dereferenceable(72) %0, ptr noundef nonnull readonly align 8 dereferenceable(72) %1)
          to label %3 unwind label %4

3:                                                ; preds = %2
  store ptr getelementptr inbounds nuw inrange(-16, 24) (i8, ptr @_ZTVN7Iex_3_415EafnosupportExcE, i64 16), ptr %0, align 8, !tbaa !7
  ret void

4:                                                ; preds = %2
  %5 = landingpad { ptr, i32 }
          catch ptr null
  %6 = extractvalue { ptr, i32 } %5, 0
  tail call void @__clang_call_terminate(ptr %6) #24
  unreachable
}